; Function Attrs: nofree norecurse nosync nounwind memory(read, argmem: readwrite, inaccessiblemem: none) uwtable
define range(i32 -1, 1) i32 @pmix_hash_table_get_first_key_ptr(ptr noundef readonly captures(none) %0, ptr noundef writeonly captures(none) %1, ptr noundef writeonly captures(none) %2, ptr noundef writeonly captures(none) %3, ptr noundef writeonly captures(none) %4) local_unnamed_addr #2 {
  %6 = getelementptr i8, ptr %0, i64 128
  %.val.i = load ptr, ptr %6, align 8, !tbaa !17
  %7 = getelementptr i8, ptr %0, i64 136
  %.val6.i = load i64, ptr %7, align 8, !tbaa !11
  %.not = icmp eq i64 %.val6.i, 0
  br i1 %.not, label %pmix_hash_table_get_next_key_ptr.exit, label %.critedge.i.i

8:                                                ; preds = %.critedge.i.i
  %9 = add nuw i64 %.0151.i.i, 1
  %exitcond.not.i.i = icmp eq i64 %9, %.val6.i
  br i1 %exitcond.not.i.i, label %pmix_hash_table_get_next_key_ptr.exit, label %.critedge.i.i, !llvm.loop !45

.critedge.i.i:                                    ; preds = %5, %8
  %.0151.i.i = phi i64 [ %9, %8 ], [ 0, %5 ]
  %10 = getelementptr inbounds nuw %struct.pmix_hash_element_t, ptr %.val.i, i64 %.0151.i.i
  %11 = load i32, ptr %10, align 8, !tbaa !18
  %.not.i.i = icmp eq i32 %11, 0
  br i1 %.not.i.i, label %8, label %pmix_hash_table_get_next_elt.exit.i

pmix_hash_table_get_next_elt.exit.i:              ; preds = %.critedge.i.i
  %12 = getelementptr inbounds nuw i8, ptr %10, i64 8
  %13 = load ptr, ptr %12, align 8, !tbaa !36
  store ptr %13, ptr %1, align 8, !tbaa !37
  %14 = getelementptr inbounds nuw i8, ptr %10, i64 16
  %15 = load i64, ptr %14, align 8, !tbaa !36
  store i64 %15, ptr %2, align 8, !tbaa !46
  %16 = getelementptr inbounds nuw i8, ptr %10, i64 32
  %17 = load ptr, ptr %16, align 8, !tbaa !24
  store ptr %17, ptr %3, align 8, !tbaa !37
  store ptr %10, ptr %4, align 8, !tbaa !37
  br label %pmix_hash_table_get_next_key_ptr.exit

pmix_hash_table_get_next_key_ptr.exit:            ; preds = %8, %5, %pmix_hash_table_get_next_elt.exit.i
  %.0.i = phi i32 [ 0, %pmix_hash_table_get_next_elt.exit.i ], [ -1, %5 ], [ -1, %8 ]
  ret i32 %.0.i
}